; ModuleID = 'source-C-CXX/44/149.c'
source_filename = "source-C-CXX/44/149.c"
target datalayout = "e-m:e-p270:32:32-p271:32:32-p272:64:64-i64:64-f80:128-n8:16:32:64-S128"
target triple = "x86_64-pc-linux-gnu"

@.str = private unnamed_addr constant [6 x i8] c"%s %s\00", align 1
@.str.1 = private unnamed_addr constant [3 x i8] c"%d\00", align 1

; Function Attrs: nofree nounwind sspstrong uwtable
define dso_local i32 @main(i32 %0, i8** nocapture readnone %1) local_unnamed_addr #0 {
  %3 = alloca [255 x i8], align 16
  %4 = alloca [255 x i8], align 16
  %5 = getelementptr inbounds [255 x i8], [255 x i8]* %3, i64 0, i64 0
  call void @llvm.lifetime.start.p0i8(i64 255, i8* nonnull %5) #4
  %6 = getelementptr inbounds [255 x i8], [255 x i8]* %4, i64 0, i64 0
  call void @llvm.lifetime.start.p0i8(i64 255, i8* nonnull %6) #4
  %7 = call i32 (i8*, ...) @__isoc99_scanf(i8* getelementptr inbounds ([6 x i8], [6 x i8]* @.str, i64 0, i64 0), i8* nonnull %5, i8* nonnull %6)
  %8 = call i64 @strlen(i8* noundef nonnull %5) #5
  %9 = trunc i64 %8 to i32
  %10 = call i64 @strlen(i8* noundef nonnull %6) #5
  %11 = trunc i64 %10 to i32
  %12 = icmp slt i32 %11, %9
  br i1 %12, label %45, label %13

13:                                               ; preds = %2
  %14 = add i64 %10, 1
  %15 = sub i64 %14, %8
  %16 = and i64 %15, 4294967295
  %17 = icmp sgt i32 %9, 0
  br label %18

18:                                               ; preds = %13, %41
  %19 = phi i64 [ 0, %13 ], [ %43, %41 ]
  %20 = phi i32 [ 0, %13 ], [ %42, %41 ]
  %21 = add nsw i32 %20, %9
  br i1 %17, label %22, label %36

22:                                               ; preds = %18, %22
  %23 = phi i64 [ %33, %22 ], [ %19, %18 ]
  %24 = phi i32 [ %32, %22 ], [ 0, %18 ]
  %25 = zext i32 %24 to i64
  %26 = getelementptr inbounds [255 x i8], [255 x i8]* %3, i64 0, i64 %25
  %27 = load i8, i8* %26, align 1, !tbaa !5
  %28 = getelementptr inbounds [255 x i8], [255 x i8]* %4, i64 0, i64 %23
  %29 = load i8, i8* %28, align 1, !tbaa !5
  %30 = icmp eq i8 %27, %29
  %31 = zext i1 %30 to i32
  %32 = add nuw nsw i32 %24, %31
  %33 = add nuw nsw i64 %23, 1
  %34 = trunc i64 %33 to i32
  %35 = icmp sgt i32 %21, %34
  br i1 %35, label %22, label %36, !llvm.loop !8

36:                                               ; preds = %22, %18
  %37 = phi i32 [ 0, %18 ], [ %32, %22 ]
  %38 = icmp eq i32 %37, %9
  br i1 %38, label %39, label %41

39:                                               ; preds = %36
  %40 = call i32 (i8*, ...) @printf(i8* nonnull dereferenceable(1) getelementptr inbounds ([3 x i8], [3 x i8]* @.str.1, i64 0, i64 0), i32 %20)
  br label %45

41:                                               ; preds = %36
  %42 = add nuw nsw i32 %20, 1
  %43 = add nuw nsw i64 %19, 1
  %44 = icmp eq i64 %43, %16
  br i1 %44, label %45, label %18, !llvm.loop !10

45:                                               ; preds = %41, %2, %39
  call void @llvm.lifetime.end.p0i8(i64 255, i8* nonnull %6) #4
  call void @llvm.lifetime.end.p0i8(i64 255, i8* nonnull %5) #4
  ret i32 0
}

; Function Attrs: argmemonly mustprogress nofree nosync nounwind willreturn
declare void @llvm.lifetime.start.p0i8(i64 immarg, i8* nocapture) #1

; Function Attrs: nofree nounwind
declare noundef i32 @__isoc99_scanf(i8* nocapture noundef readonly, ...) local_unnamed_addr #2

; Function Attrs: argmemonly mustprogress nofree nounwind readonly willreturn
declare i64 @strlen(i8* nocapture) local_unnamed_addr #3

; Function Attrs: nofree nounwind
declare noundef i32 @printf(i8* nocapture noundef readonly, ...) local_unnamed_addr #2

; Function Attrs: argmemonly mustprogress nofree nosync nounwind willreturn
declare void @llvm.lifetime.end.p0i8(i64 immarg, i8* nocapture) #1


!llvm.module.flags = !{!0, !1, !2, !3}
!llvm.ident = !{!4}

!0 = !{i32 1, !"wchar_size", i32 4}
!1 = !{i32 7, !"PIC Level", i32 2}
!2 = !{i32 7, !"PIE Level", i32 2}
!3 = !{i32 7, !"uwtable", i32 1}
!4 = !{!"clang version 13.0.0"}
!5 = !{!6, !6, i64 0}
!6 = !{!"omnipotent char", !7, i64 0}
!7 = !{!"Simple C/C++ TBAA"}
!8 = distinct !{!8, !9}
!9 = !{!"llvm.loop.mustprogress"}
!10 = distinct !{!10, !9}
